; ModuleID = '6/827.c'
source_filename = "6/827.c"
target datalayout = "e-m:e-p270:32:32-p271:32:32-p272:64:64-i64:64-f80:128-n8:16:32:64-S128"
target triple = "x86_64-pc-linux-gnu"

@.str = private unnamed_addr constant [3 x i8] c"%d\00", align 1
@.str.1 = private unnamed_addr constant [5 x i8] c"%d%d\00", align 1
@.str.2 = private unnamed_addr constant [4 x i8] c"%d\0A\00", align 1

; Function Attrs: noinline nounwind uwtable
define dso_local i32 @main() #0 {
  %1 = alloca i32, align 4
  %2 = alloca i32, align 4
  %3 = alloca [100 x [100 x [100 x i32]]], align 16
  %4 = alloca [100 x [2 x i32]], align 16
  %5 = alloca [100 x i32], align 16
  %6 = alloca i32, align 4
  %7 = alloca i32, align 4
  %8 = alloca i32, align 4
  %9 = alloca i32, align 4
  %10 = alloca i32, align 4
  store i32 0, i32* %1, align 4
  %11 = call i32 (i8*, ...) @__isoc99_scanf(i8* getelementptr inbounds ([3 x i8], [3 x i8]* @.str, i64 0, i64 0), i32* %2)
  store i32 0, i32* %6, align 4
  br label %12

12:                                               ; preds = %99, %0
  %13 = load i32, i32* %6, align 4
  %14 = load i32, i32* %2, align 4
  %15 = icmp slt i32 %13, %14
  br i1 %15, label %16, label %102

16:                                               ; preds = %12
  %17 = load i32, i32* %6, align 4
  %18 = sext i32 %17 to i64
  %19 = getelementptr inbounds [100 x [2 x i32]], [100 x [2 x i32]]* %4, i64 0, i64 %18
  %20 = getelementptr inbounds [2 x i32], [2 x i32]* %19, i64 0, i64 0
  %21 = load i32, i32* %6, align 4
  %22 = sext i32 %21 to i64
  %23 = getelementptr inbounds [100 x [2 x i32]], [100 x [2 x i32]]* %4, i64 0, i64 %22
  %24 = getelementptr inbounds [2 x i32], [2 x i32]* %23, i64 0, i64 1
  %25 = call i32 (i8*, ...) @__isoc99_scanf(i8* getelementptr inbounds ([5 x i8], [5 x i8]* @.str.1, i64 0, i64 0), i32* %20, i32* %24)
  %26 = load i32, i32* %6, align 4
  %27 = sext i32 %26 to i64
  %28 = getelementptr inbounds [100 x [2 x i32]], [100 x [2 x i32]]* %4, i64 0, i64 %27
  %29 = getelementptr inbounds [2 x i32], [2 x i32]* %28, i64 0, i64 0
  %30 = load i32, i32* %29, align 8
  store i32 %30, i32* %9, align 4
  %31 = load i32, i32* %6, align 4
  %32 = sext i32 %31 to i64
  %33 = getelementptr inbounds [100 x [2 x i32]], [100 x [2 x i32]]* %4, i64 0, i64 %32
  %34 = getelementptr inbounds [2 x i32], [2 x i32]* %33, i64 0, i64 1
  %35 = load i32, i32* %34, align 4
  store i32 %35, i32* %10, align 4
  %36 = load i32, i32* %6, align 4
  %37 = sext i32 %36 to i64
  %38 = getelementptr inbounds [100 x i32], [100 x i32]* %5, i64 0, i64 %37
  store i32 0, i32* %38, align 4
  store i32 0, i32* %7, align 4
  br label %39

39:                                               ; preds = %95, %16
  %40 = load i32, i32* %7, align 4
  %41 = load i32, i32* %9, align 4
  %42 = icmp slt i32 %40, %41
  br i1 %42, label %43, label %98

43:                                               ; preds = %39
  store i32 0, i32* %8, align 4
  br label %44

44:                                               ; preds = %91, %43
  %45 = load i32, i32* %8, align 4
  %46 = load i32, i32* %10, align 4
  %47 = icmp slt i32 %45, %46
  br i1 %47, label %48, label %94

48:                                               ; preds = %44
  %49 = load i32, i32* %7, align 4
  %50 = sext i32 %49 to i64
  %51 = getelementptr inbounds [100 x [100 x [100 x i32]]], [100 x [100 x [100 x i32]]]* %3, i64 0, i64 %50
  %52 = load i32, i32* %8, align 4
  %53 = sext i32 %52 to i64
  %54 = getelementptr inbounds [100 x [100 x i32]], [100 x [100 x i32]]* %51, i64 0, i64 %53
  %55 = load i32, i32* %6, align 4
  %56 = sext i32 %55 to i64
  %57 = getelementptr inbounds [100 x i32], [100 x i32]* %54, i64 0, i64 %56
  %58 = call i32 (i8*, ...) @__isoc99_scanf(i8* getelementptr inbounds ([3 x i8], [3 x i8]* @.str, i64 0, i64 0), i32* %57)
  %59 = load i32, i32* %7, align 4
  %60 = icmp eq i32 %59, 0
  br i1 %60, label %74, label %61

61:                                               ; preds = %48
  %62 = load i32, i32* %8, align 4
  %63 = icmp eq i32 %62, 0
  br i1 %63, label %74, label %64

64:                                               ; preds = %61
  %65 = load i32, i32* %7, align 4
  %66 = load i32, i32* %9, align 4
  %67 = sub nsw i32 %66, 1
  %68 = icmp eq i32 %65, %67
  br i1 %68, label %74, label %69

69:                                               ; preds = %64
  %70 = load i32, i32* %8, align 4
  %71 = load i32, i32* %10, align 4
  %72 = sub nsw i32 %71, 1
  %73 = icmp eq i32 %70, %72
  br i1 %73, label %74, label %90

74:                                               ; preds = %69, %64, %61, %48
  %75 = load i32, i32* %7, align 4
  %76 = sext i32 %75 to i64
  %77 = getelementptr inbounds [100 x [100 x [100 x i32]]], [100 x [100 x [100 x i32]]]* %3, i64 0, i64 %76
  %78 = load i32, i32* %8, align 4
  %79 = sext i32 %78 to i64
  %80 = getelementptr inbounds [100 x [100 x i32]], [100 x [100 x i32]]* %77, i64 0, i64 %79
  %81 = load i32, i32* %6, align 4
  %82 = sext i32 %81 to i64
  %83 = getelementptr inbounds [100 x i32], [100 x i32]* %80, i64 0, i64 %82
  %84 = load i32, i32* %83, align 4
  %85 = load i32, i32* %6, align 4
  %86 = sext i32 %85 to i64
  %87 = getelementptr inbounds [100 x i32], [100 x i32]* %5, i64 0, i64 %86
  %88 = load i32, i32* %87, align 4
  %89 = add nsw i32 %88, %84
  store i32 %89, i32* %87, align 4
  br label %90

90:                                               ; preds = %74, %69
  br label %91

91:                                               ; preds = %90
  %92 = load i32, i32* %8, align 4
  %93 = add nsw i32 %92, 1
  store i32 %93, i32* %8, align 4
  br label %44

94:                                               ; preds = %44
  br label %95

95:                                               ; preds = %94
  %96 = load i32, i32* %7, align 4
  %97 = add nsw i32 %96, 1
  store i32 %97, i32* %7, align 4
  br label %39

98:                                               ; preds = %39
  br label %99

99:                                               ; preds = %98
  %100 = load i32, i32* %6, align 4
  %101 = add nsw i32 %100, 1
  store i32 %101, i32* %6, align 4
  br label %12

102:                                              ; preds = %12
  store i32 0, i32* %6, align 4
  br label %103

103:                                              ; preds = %113, %102
  %104 = load i32, i32* %6, align 4
  %105 = load i32, i32* %2, align 4
  %106 = icmp slt i32 %104, %105
  br i1 %106, label %107, label %116

107:                                              ; preds = %103
  %108 = load i32, i32* %6, align 4
  %109 = sext i32 %108 to i64
  %110 = getelementptr inbounds [100 x i32], [100 x i32]* %5, i64 0, i64 %109
  %111 = load i32, i32* %110, align 4
  %112 = call i32 (i8*, ...) @printf(i8* getelementptr inbounds ([4 x i8], [4 x i8]* @.str.2, i64 0, i64 0), i32 %111)
  br label %113

113:                                              ; preds = %107
  %114 = load i32, i32* %6, align 4
  %115 = add nsw i32 %114, 1
  store i32 %115, i32* %6, align 4
  br label %103

116:                                              ; preds = %103
  ret i32 0
}

declare dso_local i32 @__isoc99_scanf(i8*, ...) #1

declare dso_local i32 @printf(i8*, ...) #1


!llvm.module.flags = !{!0}
!llvm.ident = !{!1}

!0 = !{i32 1, !"wchar_size", i32 4}
!1 = !{!"clang version 10.0.0-4ubuntu1 "}
